; Function Attrs: nounwind uwtable
define internal fastcc noalias nonnull ptr @_init_l_Lean_Meta_Hint_tryThisDiffWidget___closed__3___boxed__const__1() unnamed_addr #0 {
  %1 = load i64, ptr @l_Lean_Meta_Hint_tryThisDiffWidget___closed__2, align 8, !tbaa !13
  tail call void @lean_inc_heartbeat() #4
  %2 = tail call noalias ptr @mi_malloc_small(i64 noundef 16) #4
  %3 = icmp eq ptr %2, null
  br i1 %3, label %4, label %lean_box_uint64.exit

4:                                                ; preds = %0
  tail call void @lean_internal_panic_out_of_memory() #5
  unreachable

lean_box_uint64.exit:                             ; preds = %0
  %5 = getelementptr inbounds nuw i8, ptr %2, i64 4
  store i32 1, ptr %2, align 4, !tbaa !8
  store i32 16, ptr %5, align 4
  %6 = getelementptr inbounds nuw i8, ptr %2, i64 8
  store i64 %1, ptr %6, align 8, !tbaa !13
  ret ptr %2
}